target datalayout = "e-m:e-p270:32:32-p271:32:32-p272:64:64-i64:64-i128:128-f80:128-n8:16:32:64-S128"
target triple = "x86_64-pc-linux-gnu"

%class.Klass = type <{ %class.Metadata, i32, i32, i32, i32, ptr, ptr, ptr, [8 x ptr], %class.OopHandle, ptr, ptr, ptr, ptr, ptr, i32, %class.AccessFlags, i64, i64, i8, i8, i16, i16, [2 x i8], i32, [4 x i8] }>
%class.Metadata = type { ptr }
%class.OopHandle = type { ptr }
%class.AccessFlags = type { i32 }

; Function Attrs: mustprogress nounwind uwtable
define linkonce_odr hidden noundef ptr @_ZN13InstanceKlass4castEPK5Klass(ptr noundef %0) #1 comdat align 2 {
  %2 = alloca ptr, align 8
  store ptr %0, ptr %2, align 8
  %3 = load ptr, ptr %2, align 8
  ret ptr %3
}

; Function Attrs: mustprogress nounwind uwtable
define linkonce_odr hidden noundef ptr @_ZNK5Klass5superEv(ptr noundef nonnull align 8 dereferenceable(196) %0) #1 comdat align 2 {
  %2 = alloca ptr, align 8
  store ptr %0, ptr %2, align 8
  %3 = load ptr, ptr %2, align 8
  %4 = getelementptr inbounds %class.Klass, ptr %3, i32 0, i32 10
  %5 = load ptr, ptr %4, align 8
  ret ptr %5
}

; Function Attrs: mustprogress nounwind uwtable
define linkonce_odr hidden noundef i32 @_ZN8Metadata13identity_hashEv(ptr noundef nonnull align 8 dereferenceable(8) %0) #1 comdat align 2 {
  %2 = alloca ptr, align 8
  store ptr %0, ptr %2, align 8
  %3 = load ptr, ptr %2, align 8
  %4 = ptrtoint ptr %3 to i64
  %5 = trunc i64 %4 to i32
  ret i32 %5
}

; Function Attrs: mustprogress nounwind uwtable
define linkonce_odr hidden noundef i32 @_Z12checked_castIimET_T0_(i64 noundef %0) #1 comdat {
  %2 = alloca i64, align 8
  %3 = alloca i32, align 4
  store i64 %0, ptr %2, align 8
  %4 = load i64, ptr %2, align 8
  %5 = trunc i64 %4 to i32
  store i32 %5, ptr %3, align 4
  %6 = load i32, ptr %3, align 4
  ret i32 %6
}

; Function Attrs: mustprogress nounwind uwtable
define linkonce_odr hidden noundef ptr @_ZN13InstanceKlass4castEP5Klass(ptr noundef %0) #1 comdat align 2 {
  %2 = alloca ptr, align 8
  store ptr %0, ptr %2, align 8
  %3 = load ptr, ptr %2, align 8
  %4 = call noundef ptr @_ZN13InstanceKlass4castEPK5Klass(ptr noundef %3)
  ret ptr %4
}

; Function Attrs: mustprogress nounwind uwtable
define hidden noundef zeroext i1 @_ZN18jfieldIDWorkaround13klass_hash_okEP5KlassP9_jfieldID(ptr noundef %0, ptr noundef %1) #1 align 2 {
  %3 = alloca i1, align 1
  %4 = alloca ptr, align 8
  %5 = alloca ptr, align 8
  %6 = alloca i64, align 8
  %7 = alloca i64, align 8
  store ptr %0, ptr %4, align 8
  store ptr %1, ptr %5, align 8
  %8 = load ptr, ptr %5, align 8
  %9 = ptrtoint ptr %8 to i64
  store i64 %9, ptr %6, align 8
  %10 = load i64, ptr %6, align 8
  %11 = lshr i64 %10, 9
  %12 = and i64 %11, 36028797018963967
  store i64 %12, ptr %7, align 8
  br label %13

13:                                               ; preds = %24, %2
  %14 = load ptr, ptr %4, align 8
  %15 = call noundef i32 @_ZN8Metadata13identity_hashEv(ptr noundef nonnull align 8 dereferenceable(8) %14)
  %16 = sext i32 %15 to i64
  %17 = and i64 %16, 36028797018963967
  %18 = load i64, ptr %7, align 8
  %19 = icmp eq i64 %17, %18
  br i1 %19, label %20, label %21

20:                                               ; preds = %13
  store i1 true, ptr %3, align 1
  br label %28

21:                                               ; preds = %13
  %22 = load ptr, ptr %4, align 8
  %23 = call noundef ptr @_ZNK5Klass5superEv(ptr noundef nonnull align 8 dereferenceable(196) %22)
  store ptr %23, ptr %4, align 8
  br label %24

24:                                               ; preds = %21
  %25 = load ptr, ptr %4, align 8
  %26 = icmp ne ptr %25, null
  br i1 %26, label %13, label %27, !llvm.loop !6

27:                                               ; preds = %24
  store i1 false, ptr %3, align 1
  br label %28

28:                                               ; preds = %27, %20
  %29 = load i1, ptr %3, align 1
  ret i1 %29
}

; Function Attrs: mustprogress nounwind uwtable
define linkonce_odr hidden noundef zeroext i1 @_ZN18jfieldIDWorkaround19is_checked_jfieldIDEP9_jfieldID(ptr noundef %0) #1 comdat align 2 {
  %2 = alloca ptr, align 8
  %3 = alloca i64, align 8
  store ptr %0, ptr %2, align 8
  %4 = load ptr, ptr %2, align 8
  %5 = ptrtoint ptr %4 to i64
  store i64 %5, ptr %3, align 8
  %6 = load i64, ptr %3, align 8
  %7 = and i64 %6, 1
  %8 = icmp ne i64 %7, 0
  ret i1 %8
}

; Function Attrs: mustprogress nounwind uwtable
define linkonce_odr hidden noundef i32 @_ZN18jfieldIDWorkaround19raw_instance_offsetEP9_jfieldID(ptr noundef %0) #1 comdat align 2 {
  %2 = alloca ptr, align 8
  %3 = alloca i64, align 8
  store ptr %0, ptr %2, align 8
  %4 = load ptr, ptr %2, align 8
  %5 = ptrtoint ptr %4 to i64
  %6 = lshr i64 %5, 2
  store i64 %6, ptr %3, align 8
  %7 = load i64, ptr %3, align 8
  %8 = call noundef i32 @_Z12checked_castIimET_T0_(i64 noundef %7)
  ret i32 %8
}

; Function Attrs: mustprogress nounwind uwtable
define linkonce_odr hidden noundef zeroext i1 @_ZN18jfieldIDWorkaround20is_instance_jfieldIDEP5KlassP9_jfieldID(ptr noundef %0, ptr noundef %1) #1 comdat align 2 {
  %3 = alloca ptr, align 8
  %4 = alloca ptr, align 8
  %5 = alloca i64, align 8
  store ptr %0, ptr %3, align 8
  store ptr %1, ptr %4, align 8
  %6 = load ptr, ptr %4, align 8
  %7 = ptrtoint ptr %6 to i64
  store i64 %7, ptr %5, align 8
  %8 = load i64, ptr %5, align 8
  %9 = and i64 %8, 2
  %10 = icmp ne i64 %9, 0
  ret i1 %10
}

; Function Attrs: mustprogress nounwind uwtable
define hidden noundef zeroext i1 @_ZN18jfieldIDWorkaround17is_valid_jfieldIDEP5KlassP9_jfieldID(ptr noundef %0, ptr noundef %1) #1 align 2 {
  %3 = alloca i1, align 1
  %4 = alloca ptr, align 8
  %5 = alloca ptr, align 8
  %6 = alloca i64, align 8
  %7 = alloca i32, align 4
  %8 = alloca ptr, align 8
  store ptr %0, ptr %4, align 8
  store ptr %1, ptr %5, align 8
  %9 = load ptr, ptr %4, align 8
  %10 = load ptr, ptr %5, align 8
  %11 = call noundef zeroext i1 @_ZN18jfieldIDWorkaround20is_instance_jfieldIDEP5KlassP9_jfieldID(ptr noundef %9, ptr noundef %10)
  br i1 %11, label %12, label %30

12:                                               ; preds = %2
  %13 = load ptr, ptr %5, align 8
  %14 = ptrtoint ptr %13 to i64
  store i64 %14, ptr %6, align 8
  %15 = load ptr, ptr %5, align 8
  %16 = call noundef i32 @_ZN18jfieldIDWorkaround19raw_instance_offsetEP9_jfieldID(ptr noundef %15)
  store i32 %16, ptr %7, align 4
  %17 = load ptr, ptr %5, align 8
  %18 = call noundef zeroext i1 @_ZN18jfieldIDWorkaround19is_checked_jfieldIDEP9_jfieldID(ptr noundef %17)
  br i1 %18, label %19, label %25

19:                                               ; preds = %12
  %20 = load ptr, ptr %4, align 8
  %21 = load ptr, ptr %5, align 8
  %22 = call noundef zeroext i1 @_ZN18jfieldIDWorkaround13klass_hash_okEP5KlassP9_jfieldID(ptr noundef %20, ptr noundef %21)
  br i1 %22, label %24, label %23

23:                                               ; preds = %19
  store i1 false, ptr %3, align 1
  br label %34

24:                                               ; preds = %19
  br label %25

25:                                               ; preds = %24, %12
  %26 = load ptr, ptr %4, align 8
  %27 = call noundef ptr @_ZN13InstanceKlass4castEP5Klass(ptr noundef %26)
  %28 = load i32, ptr %7, align 4
  %29 = call noundef zeroext i1 @_ZN13InstanceKlass21contains_field_offsetEi(ptr noundef nonnull align 8 dereferenceable(464) %27, i32 noundef %28)
  store i1 %29, ptr %3, align 1
  br label %34

30:                                               ; preds = %2
  %31 = load ptr, ptr %5, align 8
  store ptr %31, ptr %8, align 8
  %32 = load ptr, ptr %8, align 8
  %33 = icmp ne ptr %32, null
  store i1 %33, ptr %3, align 1
  br label %34

34:                                               ; preds = %30, %25, %23
  %35 = load i1, ptr %3, align 1
  ret i1 %35
}