; Function Attrs: mustprogress nounwind uwtable
define hidden noundef zeroext i1 @_ZN18jfieldIDWorkaround17is_valid_jfieldIDEP5KlassP9_jfieldID(ptr noundef %0, ptr noundef %1) local_unnamed_addr #0 align 2 {
  %3 = ptrtoint ptr %1 to i64
  %4 = and i64 %3, 2
  %.not = icmp eq i64 %4, 0
  br i1 %.not, label %20, label %5

5:                                                ; preds = %2
  %6 = lshr i64 %3, 2
  %7 = trunc i64 %6 to i32
  %8 = and i64 %3, 1
  %.not11 = icmp eq i64 %8, 0
  br i1 %.not11, label %_ZN18jfieldIDWorkaround13klass_hash_okEP5KlassP9_jfieldID.exit.thread, label %9

9:                                                ; preds = %5
  %10 = lshr i64 %3, 9
  br label %11

11:                                               ; preds = %16, %9
  %.06.i = phi ptr [ %0, %9 ], [ %18, %16 ]
  %12 = ptrtoint ptr %.06.i to i64
  %sext.i = shl i64 %12, 32
  %13 = ashr exact i64 %sext.i, 32
  %14 = and i64 %13, 36028797018963967
  %15 = icmp eq i64 %14, %10
  br i1 %15, label %_ZN18jfieldIDWorkaround13klass_hash_okEP5KlassP9_jfieldID.exit.thread, label %16

16:                                               ; preds = %11
  %17 = getelementptr inbounds i8, ptr %.06.i, i64 120
  %18 = load ptr, ptr %17, align 8
  %.not.i = icmp eq ptr %18, null
  br i1 %.not.i, label %_ZN18jfieldIDWorkaround13klass_hash_okEP5KlassP9_jfieldID.exit, label %11, !llvm.loop !6

_ZN18jfieldIDWorkaround13klass_hash_okEP5KlassP9_jfieldID.exit.thread: ; preds = %11, %5
  %19 = tail call noundef zeroext i1 @_ZN13InstanceKlass21contains_field_offsetEi(ptr noundef nonnull align 8 dereferenceable(464) %0, i32 noundef %7) #14
  br label %_ZN18jfieldIDWorkaround13klass_hash_okEP5KlassP9_jfieldID.exit

20:                                               ; preds = %2
  %21 = icmp ne ptr %1, null
  br label %_ZN18jfieldIDWorkaround13klass_hash_okEP5KlassP9_jfieldID.exit

_ZN18jfieldIDWorkaround13klass_hash_okEP5KlassP9_jfieldID.exit: ; preds = %16, %20, %_ZN18jfieldIDWorkaround13klass_hash_okEP5KlassP9_jfieldID.exit.thread
  %.0 = phi i1 [ %19, %_ZN18jfieldIDWorkaround13klass_hash_okEP5KlassP9_jfieldID.exit.thread ], [ %21, %20 ], [ false, %16 ]
  ret i1 %.0
}